; ModuleID = '2/227.c'
source_filename = "2/227.c"
target datalayout = "e-m:e-p270:32:32-p271:32:32-p272:64:64-i64:64-f80:128-n8:16:32:64-S128"
target triple = "x86_64-pc-linux-gnu"

%struct.book = type { i32, [26 x i8] }

@.str = private unnamed_addr constant [3 x i8] c"%d\00", align 1
@.str.1 = private unnamed_addr constant [6 x i8] c"%d %s\00", align 1
@.str.2 = private unnamed_addr constant [4 x i8] c"%c\0A\00", align 1
@.str.3 = private unnamed_addr constant [4 x i8] c"%d\0A\00", align 1

; Function Attrs: noinline nounwind uwtable
define dso_local i32 @main() #0 {
  %1 = alloca i32, align 4
  %2 = alloca [1000 x %struct.book], align 16
  %3 = alloca i32, align 4
  %4 = alloca i32, align 4
  %5 = alloca i32, align 4
  %6 = alloca [26 x i32], align 16
  %7 = alloca i32, align 4
  %8 = alloca i32, align 4
  store i32 0, i32* %1, align 4
  %9 = bitcast [26 x i32]* %6 to i8*
  call void @llvm.memset.p0i8.i64(i8* align 16 %9, i8 0, i64 104, i1 false)
  store i32 0, i32* %7, align 4
  %10 = call i32 (i8*, ...) @__isoc99_scanf(i8* getelementptr inbounds ([3 x i8], [3 x i8]* @.str, i64 0, i64 0), i32* %3)
  store i32 0, i32* %4, align 4
  br label %11

11:                                               ; preds = %26, %0
  %12 = load i32, i32* %4, align 4
  %13 = load i32, i32* %3, align 4
  %14 = icmp slt i32 %12, %13
  br i1 %14, label %15, label %29

15:                                               ; preds = %11
  %16 = load i32, i32* %4, align 4
  %17 = sext i32 %16 to i64
  %18 = getelementptr inbounds [1000 x %struct.book], [1000 x %struct.book]* %2, i64 0, i64 %17
  %19 = getelementptr inbounds %struct.book, %struct.book* %18, i32 0, i32 0
  %20 = load i32, i32* %4, align 4
  %21 = sext i32 %20 to i64
  %22 = getelementptr inbounds [1000 x %struct.book], [1000 x %struct.book]* %2, i64 0, i64 %21
  %23 = getelementptr inbounds %struct.book, %struct.book* %22, i32 0, i32 1
  %24 = getelementptr inbounds [26 x i8], [26 x i8]* %23, i64 0, i64 0
  %25 = call i32 (i8*, ...) @__isoc99_scanf(i8* getelementptr inbounds ([6 x i8], [6 x i8]* @.str.1, i64 0, i64 0), i32* %19, i8* %24)
  br label %26

26:                                               ; preds = %15
  %27 = load i32, i32* %4, align 4
  %28 = add nsw i32 %27, 1
  store i32 %28, i32* %4, align 4
  br label %11

29:                                               ; preds = %11
  store i32 0, i32* %4, align 4
  br label %30

30:                                               ; preds = %64, %29
  %31 = load i32, i32* %4, align 4
  %32 = load i32, i32* %3, align 4
  %33 = icmp slt i32 %31, %32
  br i1 %33, label %34, label %67

34:                                               ; preds = %30
  store i32 0, i32* %5, align 4
  br label %35

35:                                               ; preds = %60, %34
  %36 = load i32, i32* %5, align 4
  %37 = sext i32 %36 to i64
  %38 = load i32, i32* %4, align 4
  %39 = sext i32 %38 to i64
  %40 = getelementptr inbounds [1000 x %struct.book], [1000 x %struct.book]* %2, i64 0, i64 %39
  %41 = getelementptr inbounds %struct.book, %struct.book* %40, i32 0, i32 1
  %42 = getelementptr inbounds [26 x i8], [26 x i8]* %41, i64 0, i64 0
  %43 = call i64 @strlen(i8* %42) #4
  %44 = icmp ult i64 %37, %43
  br i1 %44, label %45, label %63

45:                                               ; preds = %35
  %46 = load i32, i32* %4, align 4
  %47 = sext i32 %46 to i64
  %48 = getelementptr inbounds [1000 x %struct.book], [1000 x %struct.book]* %2, i64 0, i64 %47
  %49 = getelementptr inbounds %struct.book, %struct.book* %48, i32 0, i32 1
  %50 = load i32, i32* %5, align 4
  %51 = sext i32 %50 to i64
  %52 = getelementptr inbounds [26 x i8], [26 x i8]* %49, i64 0, i64 %51
  %53 = load i8, i8* %52, align 1
  %54 = sext i8 %53 to i32
  %55 = sub nsw i32 %54, 65
  %56 = sext i32 %55 to i64
  %57 = getelementptr inbounds [26 x i32], [26 x i32]* %6, i64 0, i64 %56
  %58 = load i32, i32* %57, align 4
  %59 = add nsw i32 %58, 1
  store i32 %59, i32* %57, align 4
  br label %60

60:                                               ; preds = %45
  %61 = load i32, i32* %5, align 4
  %62 = add nsw i32 %61, 1
  store i32 %62, i32* %5, align 4
  br label %35

63:                                               ; preds = %35
  br label %64

64:                                               ; preds = %63
  %65 = load i32, i32* %4, align 4
  %66 = add nsw i32 %65, 1
  store i32 %66, i32* %4, align 4
  br label %30

67:                                               ; preds = %30
  store i32 0, i32* %4, align 4
  br label %68

68:                                               ; preds = %86, %67
  %69 = load i32, i32* %4, align 4
  %70 = icmp slt i32 %69, 26
  br i1 %70, label %71, label %89

71:                                               ; preds = %68
  %72 = load i32, i32* %4, align 4
  %73 = sext i32 %72 to i64
  %74 = getelementptr inbounds [26 x i32], [26 x i32]* %6, i64 0, i64 %73
  %75 = load i32, i32* %74, align 4
  %76 = load i32, i32* %7, align 4
  %77 = icmp sgt i32 %75, %76
  br i1 %77, label %78, label %85

78:                                               ; preds = %71
  %79 = load i32, i32* %4, align 4
  %80 = sext i32 %79 to i64
  %81 = getelementptr inbounds [26 x i32], [26 x i32]* %6, i64 0, i64 %80
  %82 = load i32, i32* %81, align 4
  store i32 %82, i32* %7, align 4
  %83 = load i32, i32* %4, align 4
  %84 = add nsw i32 %83, 65
  store i32 %84, i32* %8, align 4
  br label %85

85:                                               ; preds = %78, %71
  br label %86

86:                                               ; preds = %85
  %87 = load i32, i32* %4, align 4
  %88 = add nsw i32 %87, 1
  store i32 %88, i32* %4, align 4
  br label %68

89:                                               ; preds = %68
  %90 = load i32, i32* %8, align 4
  %91 = call i32 (i8*, ...) @printf(i8* getelementptr inbounds ([4 x i8], [4 x i8]* @.str.2, i64 0, i64 0), i32 %90)
  %92 = load i32, i32* %7, align 4
  %93 = call i32 (i8*, ...) @printf(i8* getelementptr inbounds ([4 x i8], [4 x i8]* @.str.3, i64 0, i64 0), i32 %92)
  store i32 0, i32* %4, align 4
  br label %94

94:                                               ; preds = %133, %89
  %95 = load i32, i32* %4, align 4
  %96 = load i32, i32* %3, align 4
  %97 = icmp slt i32 %95, %96
  br i1 %97, label %98, label %136

98:                                               ; preds = %94
  store i32 0, i32* %5, align 4
  br label %99

99:                                               ; preds = %129, %98
  %100 = load i32, i32* %5, align 4
  %101 = sext i32 %100 to i64
  %102 = load i32, i32* %4, align 4
  %103 = sext i32 %102 to i64
  %104 = getelementptr inbounds [1000 x %struct.book], [1000 x %struct.book]* %2, i64 0, i64 %103
  %105 = getelementptr inbounds %struct.book, %struct.book* %104, i32 0, i32 1
  %106 = getelementptr inbounds [26 x i8], [26 x i8]* %105, i64 0, i64 0
  %107 = call i64 @strlen(i8* %106) #4
  %108 = icmp ult i64 %101, %107
  br i1 %108, label %109, label %132

109:                                              ; preds = %99
  %110 = load i32, i32* %4, align 4
  %111 = sext i32 %110 to i64
  %112 = getelementptr inbounds [1000 x %struct.book], [1000 x %struct.book]* %2, i64 0, i64 %111
  %113 = getelementptr inbounds %struct.book, %struct.book* %112, i32 0, i32 1
  %114 = load i32, i32* %5, align 4
  %115 = sext i32 %114 to i64
  %116 = getelementptr inbounds [26 x i8], [26 x i8]* %113, i64 0, i64 %115
  %117 = load i8, i8* %116, align 1
  %118 = sext i8 %117 to i32
  %119 = load i32, i32* %8, align 4
  %120 = icmp eq i32 %118, %119
  br i1 %120, label %121, label %128

121:                                              ; preds = %109
  %122 = load i32, i32* %4, align 4
  %123 = sext i32 %122 to i64
  %124 = getelementptr inbounds [1000 x %struct.book], [1000 x %struct.book]* %2, i64 0, i64 %123
  %125 = getelementptr inbounds %struct.book, %struct.book* %124, i32 0, i32 0
  %126 = load i32, i32* %125, align 16
  %127 = call i32 (i8*, ...) @printf(i8* getelementptr inbounds ([4 x i8], [4 x i8]* @.str.3, i64 0, i64 0), i32 %126)
  br label %128

128:                                              ; preds = %121, %109
  br label %129

129:                                              ; preds = %128
  %130 = load i32, i32* %5, align 4
  %131 = add nsw i32 %130, 1
  store i32 %131, i32* %5, align 4
  br label %99

132:                                              ; preds = %99
  br label %133

133:                                              ; preds = %132
  %134 = load i32, i32* %4, align 4
  %135 = add nsw i32 %134, 1
  store i32 %135, i32* %4, align 4
  br label %94

136:                                              ; preds = %94
  %137 = load i32, i32* %1, align 4
  ret i32 %137
}

; Function Attrs: argmemonly nounwind willreturn
declare void @llvm.memset.p0i8.i64(i8* nocapture writeonly, i8, i64, i1 immarg) #1

declare dso_local i32 @__isoc99_scanf(i8*, ...) #2

; Function Attrs: nounwind readonly
declare dso_local i64 @strlen(i8*) #3

declare dso_local i32 @printf(i8*, ...) #2


!llvm.module.flags = !{!0}
!llvm.ident = !{!1}

!0 = !{i32 1, !"wchar_size", i32 4}
!1 = !{!"clang version 10.0.0-4ubuntu1 "}
